target datalayout = "e-m:e-p270:32:32-p271:32:32-p272:64:64-i64:64-i128:128-f80:128-n8:16:32:64-S128"
target triple = "x86_64-pc-linux-gnu"

%"class.tbb::detail::r1::rml::tbb_factory" = type { %"class.rml::factory", ptr, ptr }
%"class.rml::factory" = type { ptr, ptr }

@_ZN3tbb6detail2r18governor19theRMLServerFactoryE = external global %"class.tbb::detail::r1::rml::tbb_factory", align 8
@_ZN3tbb6detail2r18governor13UsePrivateRMLE = external global i8, align 1
@.str.2 = private unnamed_addr constant [81 x i8] c"rml::tbb_factory::make_server failed with status %x, falling back on private rml\00", align 1

; Function Attrs: mustprogress sspstrong uwtable
define noundef ptr @_ZN3tbb6detail2r18governor17create_rml_serverERNS1_3rml10tbb_clientE(ptr noundef nonnull align 8 dereferenceable(8) %0) #1 align 2 {
  %2 = alloca ptr, align 8
  %3 = alloca ptr, align 8
  %4 = alloca i32, align 4
  store ptr %0, ptr %2, align 8, !tbaa !88
  call void @llvm.lifetime.start.p0(i64 8, ptr %3) #12
  store ptr null, ptr %3, align 8, !tbaa !90
  %5 = load i8, ptr @_ZN3tbb6detail2r18governor13UsePrivateRMLE, align 1, !tbaa !7, !range !84, !noundef !85
  %6 = trunc i8 %5 to i1
  br i1 %6, label %15, label %7

7:                                                ; preds = %1
  call void @llvm.lifetime.start.p0(i64 4, ptr %4) #12
  %8 = load ptr, ptr %2, align 8, !tbaa !88
  %9 = call noundef i32 @_ZN3tbb6detail2r13rml11tbb_factory11make_serverERPNS2_10tbb_serverERNS2_10tbb_clientE(ptr noundef nonnull align 8 dereferenceable(32) @_ZN3tbb6detail2r18governor19theRMLServerFactoryE, ptr noundef nonnull align 8 dereferenceable(8) %3, ptr noundef nonnull align 8 dereferenceable(8) %8)
  store i32 %9, ptr %4, align 4, !tbaa !92
  %10 = load i32, ptr %4, align 4, !tbaa !92
  %11 = icmp ne i32 %10, 0
  br i1 %11, label %12, label %14

12:                                               ; preds = %7
  store i8 1, ptr @_ZN3tbb6detail2r18governor13UsePrivateRMLE, align 1, !tbaa !7
  %13 = load i32, ptr %4, align 4, !tbaa !92
  call void (ptr, ...) @_ZN3tbb6detail2r115runtime_warningEPKcz(ptr noundef @.str.2, i32 noundef %13)
  br label %14

14:                                               ; preds = %12, %7
  call void @llvm.lifetime.end.p0(i64 4, ptr %4) #12
  br label %15

15:                                               ; preds = %14, %1
  %16 = load ptr, ptr %3, align 8, !tbaa !90
  %17 = icmp ne ptr %16, null
  br i1 %17, label %21, label %18

18:                                               ; preds = %15
  %19 = load ptr, ptr %2, align 8, !tbaa !88
  %20 = call noundef ptr @_ZN3tbb6detail2r13rml19make_private_serverERNS2_10tbb_clientE(ptr noundef nonnull align 8 dereferenceable(8) %19)
  store ptr %20, ptr %3, align 8, !tbaa !90
  br label %21

21:                                               ; preds = %18, %15
  %22 = load ptr, ptr %3, align 8, !tbaa !90
  call void @llvm.lifetime.end.p0(i64 8, ptr %3) #12
  ret ptr %22
}