; Function Attrs: mustprogress sspstrong uwtable
define noundef ptr @_ZN3tbb6detail2r18governor17create_rml_serverERNS1_3rml10tbb_clientE(ptr noundef nonnull align 8 dereferenceable(8) %0) local_unnamed_addr #1 align 2 {
  %2 = alloca ptr, align 8
  call void @llvm.lifetime.start.p0(i64 8, ptr nonnull %2) #8
  store ptr null, ptr %2, align 8, !tbaa !99
  %3 = load i8, ptr @_ZN3tbb6detail2r18governor13UsePrivateRMLE, align 1, !tbaa !3, !range !77, !noundef !78
  %4 = trunc nuw i8 %3 to i1
  br i1 %4, label %.thread, label %5

5:                                                ; preds = %1
  %6 = call noundef i32 @_ZN3tbb6detail2r13rml11tbb_factory11make_serverERPNS2_10tbb_serverERNS2_10tbb_clientE(ptr noundef nonnull align 8 dereferenceable(32) @_ZN3tbb6detail2r18governor19theRMLServerFactoryE, ptr noundef nonnull align 8 dereferenceable(8) %2, ptr noundef nonnull align 8 dereferenceable(8) %0)
  %.not = icmp eq i32 %6, 0
  br i1 %.not, label %8, label %7

7:                                                ; preds = %5
  store i8 1, ptr @_ZN3tbb6detail2r18governor13UsePrivateRMLE, align 1, !tbaa !3
  call void (ptr, ...) @_ZN3tbb6detail2r115runtime_warningEPKcz(ptr noundef nonnull @.str.2, i32 noundef %6)
  br label %8

8:                                                ; preds = %5, %7
  %.pr = load ptr, ptr %2, align 8, !tbaa !99
  %.not3 = icmp eq ptr %.pr, null
  br i1 %.not3, label %.thread, label %10

.thread:                                          ; preds = %1, %8
  %9 = call noundef ptr @_ZN3tbb6detail2r13rml19make_private_serverERNS2_10tbb_clientE(ptr noundef nonnull align 8 dereferenceable(8) %0)
  br label %10

10:                                               ; preds = %.thread, %8
  %11 = phi ptr [ %9, %.thread ], [ %.pr, %8 ]
  call void @llvm.lifetime.end.p0(i64 8, ptr nonnull %2) #8
  ret ptr %11
}